target datalayout = "e-m:e-p270:32:32-p271:32:32-p272:64:64-i64:64-i128:128-f80:128-n8:16:32:64-S128"
target triple = "x86_64-pc-linux-gnu"

%struct.H5E_stack_t = type { i64, [32 x %struct.H5E_entry_t], %struct.H5E_auto_op_t, ptr, i32 }
%struct.H5E_entry_t = type { i8, %struct.H5E_error2_t }
%struct.H5E_error2_t = type { i64, i64, i64, i32, ptr, ptr, ptr }
%struct.H5E_auto_op_t = type { i32, i8, ptr, ptr, ptr, ptr }

@H5E_ERROR_g = global i64 -1, align 8
@H5E_CANTSET_g = global i64 -1, align 8
@H5E_init_g = external global i8, align 1
@H5_libterm_g = external global i8, align 1
@.str.1 = private unnamed_addr constant [100 x i8] c"generated/home/dtcxzyw/WorkSpace/Projects/compilers/llvm-opt-benchmark/bench/hdf5/hdf5/src/H5Eint.c\00", align 1
@.str.10 = private unnamed_addr constant [22 x i8] c"can't set error entry\00", align 1
@__func__.H5E__append_stack = private unnamed_addr constant [18 x i8] c"H5E__append_stack\00", align 1

; Function Attrs: nounwind uwtable
define i32 @H5E__append_stack(ptr noundef %0, ptr noundef %1) #0 {
  %3 = alloca ptr, align 8
  %4 = alloca ptr, align 8
  %5 = alloca i32, align 4
  %6 = alloca i32, align 4
  %7 = alloca i8, align 1
  store ptr %0, ptr %3, align 8, !tbaa !16
  store ptr %1, ptr %4, align 8, !tbaa !16
  call void @llvm.lifetime.start.p0(i64 4, ptr %5) #9
  call void @llvm.lifetime.start.p0(i64 4, ptr %6) #9
  store i32 0, ptr %6, align 4, !tbaa !3
  call void @llvm.lifetime.start.p0(i64 1, ptr %7) #9
  store i8 0, ptr %7, align 1, !tbaa !7
  %8 = load i8, ptr @H5E_init_g, align 1, !tbaa !7, !range !9, !noundef !10
  %9 = trunc i8 %8 to i1
  br i1 %9, label %14, label %10

10:                                               ; preds = %2
  %11 = load i8, ptr @H5_libterm_g, align 1, !tbaa !7, !range !9, !noundef !10
  %12 = trunc i8 %11 to i1
  %13 = xor i1 %12, true
  br label %14

14:                                               ; preds = %10, %2
  %15 = phi i1 [ true, %2 ], [ %13, %10 ]
  %16 = xor i1 %15, true
  %17 = xor i1 %16, true
  %18 = zext i1 %17 to i32
  %19 = sext i32 %18 to i64
  %20 = call i64 @llvm.expect.i64(i64 %19, i64 1)
  %21 = icmp ne i64 %20, 0
  br i1 %21, label %22, label %79

22:                                               ; preds = %14
  store i32 0, ptr %5, align 4, !tbaa !3
  br label %23

23:                                               ; preds = %74, %22
  %24 = load i32, ptr %5, align 4, !tbaa !3
  %25 = zext i32 %24 to i64
  %26 = load ptr, ptr %4, align 8, !tbaa !16
  %27 = getelementptr inbounds nuw %struct.H5E_stack_t, ptr %26, i32 0, i32 0
  %28 = load i64, ptr %27, align 8, !tbaa !21
  %29 = icmp ult i64 %25, %28
  br i1 %29, label %30, label %77

30:                                               ; preds = %23
  %31 = load ptr, ptr %3, align 8, !tbaa !16
  %32 = getelementptr inbounds nuw %struct.H5E_stack_t, ptr %31, i32 0, i32 1
  %33 = load ptr, ptr %3, align 8, !tbaa !16
  %34 = getelementptr inbounds nuw %struct.H5E_stack_t, ptr %33, i32 0, i32 0
  %35 = load i64, ptr %34, align 8, !tbaa !21
  %36 = getelementptr inbounds nuw [32 x %struct.H5E_entry_t], ptr %32, i64 0, i64 %35
  %37 = load ptr, ptr %4, align 8, !tbaa !16
  %38 = getelementptr inbounds nuw %struct.H5E_stack_t, ptr %37, i32 0, i32 1
  %39 = load i32, ptr %5, align 4, !tbaa !3
  %40 = zext i32 %39 to i64
  %41 = getelementptr inbounds nuw [32 x %struct.H5E_entry_t], ptr %38, i64 0, i64 %40
  %42 = call i32 @H5E__copy_stack_entry(ptr noundef %36, ptr noundef %41)
  %43 = icmp slt i32 %42, 0
  br i1 %43, label %44, label %63

44:                                               ; preds = %30
  br label %45

45:                                               ; preds = %44
  br label %46

46:                                               ; preds = %45
  br label %47

47:                                               ; preds = %46
  %48 = load i64, ptr @H5E_ERROR_g, align 8, !tbaa !11
  %49 = load i64, ptr @H5E_CANTSET_g, align 8, !tbaa !11
  %50 = call i32 (ptr, ptr, i32, i64, i64, ptr, ...) @H5E_printf_stack(ptr noundef @.str.1, ptr noundef @__func__.H5E__append_stack, i32 noundef 906, i64 noundef %48, i64 noundef %49, ptr noundef @.str.10)
  br label %51

51:                                               ; preds = %47
  br label %52

52:                                               ; preds = %51
  store i8 1, ptr %7, align 1, !tbaa !7
  %53 = load i8, ptr %7, align 1, !tbaa !7, !range !9, !noundef !10
  %54 = trunc i8 %53 to i1
  %55 = zext i1 %54 to i8
  store i8 %55, ptr %7, align 1, !tbaa !7
  br label %56

56:                                               ; preds = %52
  br label %57

57:                                               ; preds = %56
  br label %58

58:                                               ; preds = %57
  store i32 -1, ptr %6, align 4, !tbaa !3
  br label %78

59:                                               ; No predecessors!
  br label %60

60:                                               ; preds = %59
  br label %61

61:                                               ; preds = %60
  br label %62

62:                                               ; preds = %61
  br label %63

63:                                               ; preds = %62, %30
  %64 = load ptr, ptr %3, align 8, !tbaa !16
  %65 = getelementptr inbounds nuw %struct.H5E_stack_t, ptr %64, i32 0, i32 0
  %66 = load i64, ptr %65, align 8, !tbaa !21
  %67 = add i64 %66, 1
  store i64 %67, ptr %65, align 8, !tbaa !21
  %68 = load ptr, ptr %3, align 8, !tbaa !16
  %69 = getelementptr inbounds nuw %struct.H5E_stack_t, ptr %68, i32 0, i32 0
  %70 = load i64, ptr %69, align 8, !tbaa !21
  %71 = icmp uge i64 %70, 32
  br i1 %71, label %72, label %73

72:                                               ; preds = %63
  br label %77

73:                                               ; preds = %63
  br label %74

74:                                               ; preds = %73
  %75 = load i32, ptr %5, align 4, !tbaa !3
  %76 = add i32 %75, 1
  store i32 %76, ptr %5, align 4, !tbaa !3
  br label %23, !llvm.loop !69

77:                                               ; preds = %72, %23
  br label %78

78:                                               ; preds = %77, %58
  br label %79

79:                                               ; preds = %78, %14
  %80 = load i32, ptr %6, align 4, !tbaa !3
  call void @llvm.lifetime.end.p0(i64 1, ptr %7) #9
  call void @llvm.lifetime.end.p0(i64 4, ptr %6) #9
  call void @llvm.lifetime.end.p0(i64 4, ptr %5) #9
  ret i32 %80
}