; Function Attrs: nounwind uwtable
define range(i32 -1, 1) i32 @H5E__append_stack(ptr noundef captures(none) %0, ptr noundef readonly captures(none) %1) local_unnamed_addr #0 {
  %3 = load i8, ptr @H5E_init_g, align 1, !tbaa !3, !range !7, !noundef !8
  %4 = trunc nuw i8 %3 to i1
  %5 = load i8, ptr @H5_libterm_g, align 1, !range !7
  %6 = trunc nuw i8 %5 to i1
  %7 = xor i1 %6, true
  %8 = select i1 %4, i1 true, i1 %7
  br i1 %8, label %.preheader, label %.loopexit, !prof !9

.preheader:                                       ; preds = %2
  %9 = load i64, ptr %1, align 8, !tbaa !13
  %.not = icmp eq i64 %9, 0
  br i1 %.not, label %.loopexit, label %.lr.ph

.lr.ph:                                           ; preds = %.preheader
  %10 = getelementptr inbounds nuw i8, ptr %0, i64 8
  %11 = getelementptr inbounds nuw i8, ptr %1, i64 8
  %.pre = load i64, ptr %0, align 8, !tbaa !13
  br label %17

12:                                               ; preds = %28
  %13 = add i32 %.01012, 1
  %14 = zext i32 %13 to i64
  %15 = load i64, ptr %1, align 8, !tbaa !13
  %16 = icmp ugt i64 %15, %14
  br i1 %16, label %17, label %.loopexit, !llvm.loop !68

17:                                               ; preds = %.lr.ph, %12
  %18 = phi i64 [ %.pre, %.lr.ph ], [ %30, %12 ]
  %19 = phi i64 [ 0, %.lr.ph ], [ %14, %12 ]
  %.01012 = phi i32 [ 0, %.lr.ph ], [ %13, %12 ]
  %20 = getelementptr inbounds nuw [32 x %struct.H5E_entry_t], ptr %10, i64 0, i64 %18
  %21 = getelementptr inbounds nuw [32 x %struct.H5E_entry_t], ptr %11, i64 0, i64 %19
  %22 = tail call fastcc i32 @H5E__copy_stack_entry(ptr noundef nonnull %20, ptr noundef nonnull %21)
  %23 = icmp slt i32 %22, 0
  br i1 %23, label %24, label %28

24:                                               ; preds = %17
  %25 = load i64, ptr @H5E_ERROR_g, align 8, !tbaa !10
  %26 = load i64, ptr @H5E_CANTSET_g, align 8, !tbaa !10
  %27 = tail call i32 (ptr, ptr, i32, i64, i64, ptr, ...) @H5E_printf_stack(ptr noundef nonnull @.str.1, ptr noundef nonnull @__func__.H5E__append_stack, i32 noundef 906, i64 noundef %25, i64 noundef %26, ptr noundef nonnull @.str.10)
  br label %.loopexit

28:                                               ; preds = %17
  %29 = load i64, ptr %0, align 8, !tbaa !13
  %30 = add i64 %29, 1
  store i64 %30, ptr %0, align 8, !tbaa !13
  %31 = icmp ugt i64 %30, 31
  br i1 %31, label %.loopexit, label %12

.loopexit:                                        ; preds = %12, %28, %.preheader, %24, %2
  %.0 = phi i32 [ -1, %24 ], [ 0, %2 ], [ 0, %.preheader ], [ 0, %28 ], [ 0, %12 ]
  ret i32 %.0
}